target datalayout = "e-m:e-p270:32:32-p271:32:32-p272:64:64-i64:64-i128:128-f80:128-n8:16:32:64-S128"
target triple = "x86_64-pc-linux-gnu"

; Function Attrs: mustprogress nounwind uwtable
define noundef i32 @_ZN11OpenImageIO6v3_1_06bjhash8hashwordEPKjmj(ptr noundef %0, i64 noundef %1, i32 noundef %2) #4 {
  %4 = alloca ptr, align 8
  %5 = alloca i64, align 8
  %6 = alloca i32, align 4
  %7 = alloca i32, align 4
  %8 = alloca i32, align 4
  %9 = alloca i32, align 4
  store ptr %0, ptr %4, align 8, !tbaa !3
  store i64 %1, ptr %5, align 8, !tbaa !8
  store i32 %2, ptr %6, align 4, !tbaa !10
  call void @llvm.lifetime.start.p0(i64 4, ptr %7) #3
  call void @llvm.lifetime.start.p0(i64 4, ptr %8) #3
  call void @llvm.lifetime.start.p0(i64 4, ptr %9) #3
  %10 = load i64, ptr %5, align 8, !tbaa !8
  %11 = trunc i64 %10 to i32
  %12 = shl i32 %11, 2
  %13 = add i32 -559038737, %12
  %14 = load i32, ptr %6, align 4, !tbaa !10
  %15 = add i32 %13, %14
  store i32 %15, ptr %9, align 4, !tbaa !10
  store i32 %15, ptr %8, align 4, !tbaa !10
  store i32 %15, ptr %7, align 4, !tbaa !10
  br label %16

16:                                               ; preds = %19, %3
  %17 = load i64, ptr %5, align 8, !tbaa !8
  %18 = icmp ugt i64 %17, 3
  br i1 %18, label %19, label %117

19:                                               ; preds = %16
  %20 = load ptr, ptr %4, align 8, !tbaa !3
  %21 = getelementptr inbounds i32, ptr %20, i64 0
  %22 = load i32, ptr %21, align 4, !tbaa !10
  %23 = load i32, ptr %7, align 4, !tbaa !10
  %24 = add i32 %23, %22
  store i32 %24, ptr %7, align 4, !tbaa !10
  %25 = load ptr, ptr %4, align 8, !tbaa !3
  %26 = getelementptr inbounds i32, ptr %25, i64 1
  %27 = load i32, ptr %26, align 4, !tbaa !10
  %28 = load i32, ptr %8, align 4, !tbaa !10
  %29 = add i32 %28, %27
  store i32 %29, ptr %8, align 4, !tbaa !10
  %30 = load ptr, ptr %4, align 8, !tbaa !3
  %31 = getelementptr inbounds i32, ptr %30, i64 2
  %32 = load i32, ptr %31, align 4, !tbaa !10
  %33 = load i32, ptr %9, align 4, !tbaa !10
  %34 = add i32 %33, %32
  store i32 %34, ptr %9, align 4, !tbaa !10
  %35 = load i32, ptr %9, align 4, !tbaa !10
  %36 = load i32, ptr %7, align 4, !tbaa !10
  %37 = sub i32 %36, %35
  store i32 %37, ptr %7, align 4, !tbaa !10
  %38 = load i32, ptr %9, align 4, !tbaa !10
  %39 = shl i32 %38, 4
  %40 = load i32, ptr %9, align 4, !tbaa !10
  %41 = lshr i32 %40, 28
  %42 = or i32 %39, %41
  %43 = load i32, ptr %7, align 4, !tbaa !10
  %44 = xor i32 %43, %42
  store i32 %44, ptr %7, align 4, !tbaa !10
  %45 = load i32, ptr %8, align 4, !tbaa !10
  %46 = load i32, ptr %9, align 4, !tbaa !10
  %47 = add i32 %46, %45
  store i32 %47, ptr %9, align 4, !tbaa !10
  %48 = load i32, ptr %7, align 4, !tbaa !10
  %49 = load i32, ptr %8, align 4, !tbaa !10
  %50 = sub i32 %49, %48
  store i32 %50, ptr %8, align 4, !tbaa !10
  %51 = load i32, ptr %7, align 4, !tbaa !10
  %52 = shl i32 %51, 6
  %53 = load i32, ptr %7, align 4, !tbaa !10
  %54 = lshr i32 %53, 26
  %55 = or i32 %52, %54
  %56 = load i32, ptr %8, align 4, !tbaa !10
  %57 = xor i32 %56, %55
  store i32 %57, ptr %8, align 4, !tbaa !10
  %58 = load i32, ptr %9, align 4, !tbaa !10
  %59 = load i32, ptr %7, align 4, !tbaa !10
  %60 = add i32 %59, %58
  store i32 %60, ptr %7, align 4, !tbaa !10
  %61 = load i32, ptr %8, align 4, !tbaa !10
  %62 = load i32, ptr %9, align 4, !tbaa !10
  %63 = sub i32 %62, %61
  store i32 %63, ptr %9, align 4, !tbaa !10
  %64 = load i32, ptr %8, align 4, !tbaa !10
  %65 = shl i32 %64, 8
  %66 = load i32, ptr %8, align 4, !tbaa !10
  %67 = lshr i32 %66, 24
  %68 = or i32 %65, %67
  %69 = load i32, ptr %9, align 4, !tbaa !10
  %70 = xor i32 %69, %68
  store i32 %70, ptr %9, align 4, !tbaa !10
  %71 = load i32, ptr %7, align 4, !tbaa !10
  %72 = load i32, ptr %8, align 4, !tbaa !10
  %73 = add i32 %72, %71
  store i32 %73, ptr %8, align 4, !tbaa !10
  %74 = load i32, ptr %9, align 4, !tbaa !10
  %75 = load i32, ptr %7, align 4, !tbaa !10
  %76 = sub i32 %75, %74
  store i32 %76, ptr %7, align 4, !tbaa !10
  %77 = load i32, ptr %9, align 4, !tbaa !10
  %78 = shl i32 %77, 16
  %79 = load i32, ptr %9, align 4, !tbaa !10
  %80 = lshr i32 %79, 16
  %81 = or i32 %78, %80
  %82 = load i32, ptr %7, align 4, !tbaa !10
  %83 = xor i32 %82, %81
  store i32 %83, ptr %7, align 4, !tbaa !10
  %84 = load i32, ptr %8, align 4, !tbaa !10
  %85 = load i32, ptr %9, align 4, !tbaa !10
  %86 = add i32 %85, %84
  store i32 %86, ptr %9, align 4, !tbaa !10
  %87 = load i32, ptr %7, align 4, !tbaa !10
  %88 = load i32, ptr %8, align 4, !tbaa !10
  %89 = sub i32 %88, %87
  store i32 %89, ptr %8, align 4, !tbaa !10
  %90 = load i32, ptr %7, align 4, !tbaa !10
  %91 = shl i32 %90, 19
  %92 = load i32, ptr %7, align 4, !tbaa !10
  %93 = lshr i32 %92, 13
  %94 = or i32 %91, %93
  %95 = load i32, ptr %8, align 4, !tbaa !10
  %96 = xor i32 %95, %94
  store i32 %96, ptr %8, align 4, !tbaa !10
  %97 = load i32, ptr %9, align 4, !tbaa !10
  %98 = load i32, ptr %7, align 4, !tbaa !10
  %99 = add i32 %98, %97
  store i32 %99, ptr %7, align 4, !tbaa !10
  %100 = load i32, ptr %8, align 4, !tbaa !10
  %101 = load i32, ptr %9, align 4, !tbaa !10
  %102 = sub i32 %101, %100
  store i32 %102, ptr %9, align 4, !tbaa !10
  %103 = load i32, ptr %8, align 4, !tbaa !10
  %104 = shl i32 %103, 4
  %105 = load i32, ptr %8, align 4, !tbaa !10
  %106 = lshr i32 %105, 28
  %107 = or i32 %104, %106
  %108 = load i32, ptr %9, align 4, !tbaa !10
  %109 = xor i32 %108, %107
  store i32 %109, ptr %9, align 4, !tbaa !10
  %110 = load i32, ptr %7, align 4, !tbaa !10
  %111 = load i32, ptr %8, align 4, !tbaa !10
  %112 = add i32 %111, %110
  store i32 %112, ptr %8, align 4, !tbaa !10
  %113 = load i64, ptr %5, align 8, !tbaa !8
  %114 = sub i64 %113, 3
  store i64 %114, ptr %5, align 8, !tbaa !8
  %115 = load ptr, ptr %4, align 8, !tbaa !3
  %116 = getelementptr inbounds i32, ptr %115, i64 3
  store ptr %116, ptr %4, align 8, !tbaa !3
  br label %16, !llvm.loop !12

117:                                              ; preds = %16
  %118 = load i64, ptr %5, align 8, !tbaa !8
  switch i64 %118, label %207 [
    i64 3, label %119
    i64 2, label %125
    i64 1, label %131
    i64 0, label %207
  ]

119:                                              ; preds = %117
  %120 = load ptr, ptr %4, align 8, !tbaa !3
  %121 = getelementptr inbounds i32, ptr %120, i64 2
  %122 = load i32, ptr %121, align 4, !tbaa !10
  %123 = load i32, ptr %9, align 4, !tbaa !10
  %124 = add i32 %123, %122
  store i32 %124, ptr %9, align 4, !tbaa !10
  br label %125

125:                                              ; preds = %117, %119
  %126 = load ptr, ptr %4, align 8, !tbaa !3
  %127 = getelementptr inbounds i32, ptr %126, i64 1
  %128 = load i32, ptr %127, align 4, !tbaa !10
  %129 = load i32, ptr %8, align 4, !tbaa !10
  %130 = add i32 %129, %128
  store i32 %130, ptr %8, align 4, !tbaa !10
  br label %131

131:                                              ; preds = %117, %125
  %132 = load ptr, ptr %4, align 8, !tbaa !3
  %133 = getelementptr inbounds i32, ptr %132, i64 0
  %134 = load i32, ptr %133, align 4, !tbaa !10
  %135 = load i32, ptr %7, align 4, !tbaa !10
  %136 = add i32 %135, %134
  store i32 %136, ptr %7, align 4, !tbaa !10
  %137 = load i32, ptr %8, align 4, !tbaa !10
  %138 = load i32, ptr %9, align 4, !tbaa !10
  %139 = xor i32 %138, %137
  store i32 %139, ptr %9, align 4, !tbaa !10
  %140 = load i32, ptr %8, align 4, !tbaa !10
  %141 = shl i32 %140, 14
  %142 = load i32, ptr %8, align 4, !tbaa !10
  %143 = lshr i32 %142, 18
  %144 = or i32 %141, %143
  %145 = load i32, ptr %9, align 4, !tbaa !10
  %146 = sub i32 %145, %144
  store i32 %146, ptr %9, align 4, !tbaa !10
  %147 = load i32, ptr %9, align 4, !tbaa !10
  %148 = load i32, ptr %7, align 4, !tbaa !10
  %149 = xor i32 %148, %147
  store i32 %149, ptr %7, align 4, !tbaa !10
  %150 = load i32, ptr %9, align 4, !tbaa !10
  %151 = shl i32 %150, 11
  %152 = load i32, ptr %9, align 4, !tbaa !10
  %153 = lshr i32 %152, 21
  %154 = or i32 %151, %153
  %155 = load i32, ptr %7, align 4, !tbaa !10
  %156 = sub i32 %155, %154
  store i32 %156, ptr %7, align 4, !tbaa !10
  %157 = load i32, ptr %7, align 4, !tbaa !10
  %158 = load i32, ptr %8, align 4, !tbaa !10
  %159 = xor i32 %158, %157
  store i32 %159, ptr %8, align 4, !tbaa !10
  %160 = load i32, ptr %7, align 4, !tbaa !10
  %161 = shl i32 %160, 25
  %162 = load i32, ptr %7, align 4, !tbaa !10
  %163 = lshr i32 %162, 7
  %164 = or i32 %161, %163
  %165 = load i32, ptr %8, align 4, !tbaa !10
  %166 = sub i32 %165, %164
  store i32 %166, ptr %8, align 4, !tbaa !10
  %167 = load i32, ptr %8, align 4, !tbaa !10
  %168 = load i32, ptr %9, align 4, !tbaa !10
  %169 = xor i32 %168, %167
  store i32 %169, ptr %9, align 4, !tbaa !10
  %170 = load i32, ptr %8, align 4, !tbaa !10
  %171 = shl i32 %170, 16
  %172 = load i32, ptr %8, align 4, !tbaa !10
  %173 = lshr i32 %172, 16
  %174 = or i32 %171, %173
  %175 = load i32, ptr %9, align 4, !tbaa !10
  %176 = sub i32 %175, %174
  store i32 %176, ptr %9, align 4, !tbaa !10
  %177 = load i32, ptr %9, align 4, !tbaa !10
  %178 = load i32, ptr %7, align 4, !tbaa !10
  %179 = xor i32 %178, %177
  store i32 %179, ptr %7, align 4, !tbaa !10
  %180 = load i32, ptr %9, align 4, !tbaa !10
  %181 = shl i32 %180, 4
  %182 = load i32, ptr %9, align 4, !tbaa !10
  %183 = lshr i32 %182, 28
  %184 = or i32 %181, %183
  %185 = load i32, ptr %7, align 4, !tbaa !10
  %186 = sub i32 %185, %184
  store i32 %186, ptr %7, align 4, !tbaa !10
  %187 = load i32, ptr %7, align 4, !tbaa !10
  %188 = load i32, ptr %8, align 4, !tbaa !10
  %189 = xor i32 %188, %187
  store i32 %189, ptr %8, align 4, !tbaa !10
  %190 = load i32, ptr %7, align 4, !tbaa !10
  %191 = shl i32 %190, 14
  %192 = load i32, ptr %7, align 4, !tbaa !10
  %193 = lshr i32 %192, 18
  %194 = or i32 %191, %193
  %195 = load i32, ptr %8, align 4, !tbaa !10
  %196 = sub i32 %195, %194
  store i32 %196, ptr %8, align 4, !tbaa !10
  %197 = load i32, ptr %8, align 4, !tbaa !10
  %198 = load i32, ptr %9, align 4, !tbaa !10
  %199 = xor i32 %198, %197
  store i32 %199, ptr %9, align 4, !tbaa !10
  %200 = load i32, ptr %8, align 4, !tbaa !10
  %201 = shl i32 %200, 24
  %202 = load i32, ptr %8, align 4, !tbaa !10
  %203 = lshr i32 %202, 8
  %204 = or i32 %201, %203
  %205 = load i32, ptr %9, align 4, !tbaa !10
  %206 = sub i32 %205, %204
  store i32 %206, ptr %9, align 4, !tbaa !10
  br label %207

207:                                              ; preds = %117, %131, %117
  %208 = load i32, ptr %9, align 4, !tbaa !10
  call void @llvm.lifetime.end.p0(i64 4, ptr %9) #3
  call void @llvm.lifetime.end.p0(i64 4, ptr %8) #3
  call void @llvm.lifetime.end.p0(i64 4, ptr %7) #3
  ret i32 %208
}