; Function Attrs: mustprogress nofree norecurse nosync nounwind willreturn memory(argmem: read) uwtable
define noundef i32 @_ZN11OpenImageIO6v3_1_06bjhash8hashwordEPKjmj(ptr noundef readonly captures(none) %0, i64 noundef %1, i32 noundef %2) local_unnamed_addr #3 {
  %4 = trunc i64 %1 to i32
  %5 = shl i32 %4, 2
  %6 = add i32 %2, -559038737
  %7 = add i32 %6, %5
  %8 = icmp ugt i64 %1, 3
  br i1 %8, label %.lr.ph, label %._crit_edge

.lr.ph:                                           ; preds = %3, %.lr.ph
  %.0104 = phi i32 [ %39, %.lr.ph ], [ %7, %3 ]
  %.095103 = phi i32 [ %40, %.lr.ph ], [ %7, %3 ]
  %.097102 = phi i32 [ %36, %.lr.ph ], [ %7, %3 ]
  %.098101 = phi ptr [ %42, %.lr.ph ], [ %0, %3 ]
  %.099100 = phi i64 [ %41, %.lr.ph ], [ %1, %3 ]
  %9 = load i32, ptr %.098101, align 4, !tbaa !3
  %10 = add i32 %9, %.097102
  %11 = getelementptr inbounds nuw i8, ptr %.098101, i64 4
  %12 = load i32, ptr %11, align 4, !tbaa !3
  %13 = add i32 %12, %.095103
  %14 = getelementptr inbounds nuw i8, ptr %.098101, i64 8
  %15 = load i32, ptr %14, align 4, !tbaa !3
  %16 = add i32 %15, %.0104
  %17 = sub i32 %10, %16
  %18 = tail call i32 @llvm.fshl.i32(i32 %16, i32 %16, i32 4)
  %19 = xor i32 %17, %18
  %20 = add i32 %16, %13
  %21 = sub i32 %13, %19
  %22 = tail call i32 @llvm.fshl.i32(i32 %19, i32 %19, i32 6)
  %23 = xor i32 %21, %22
  %24 = add i32 %19, %20
  %25 = sub i32 %20, %23
  %26 = tail call i32 @llvm.fshl.i32(i32 %23, i32 %23, i32 8)
  %27 = xor i32 %25, %26
  %28 = add i32 %23, %24
  %29 = sub i32 %24, %27
  %30 = tail call i32 @llvm.fshl.i32(i32 %27, i32 %27, i32 16)
  %31 = xor i32 %29, %30
  %32 = add i32 %27, %28
  %33 = sub i32 %28, %31
  %34 = tail call i32 @llvm.fshl.i32(i32 %31, i32 %31, i32 19)
  %35 = xor i32 %33, %34
  %36 = add i32 %31, %32
  %37 = sub i32 %32, %35
  %38 = tail call i32 @llvm.fshl.i32(i32 %35, i32 %35, i32 4)
  %39 = xor i32 %37, %38
  %40 = add i32 %35, %36
  %41 = add i64 %.099100, -3
  %42 = getelementptr inbounds nuw i8, ptr %.098101, i64 12
  %43 = icmp ugt i64 %41, 3
  br i1 %43, label %.lr.ph, label %._crit_edge, !llvm.loop !7

._crit_edge:                                      ; preds = %.lr.ph, %3
  %.099.lcssa = phi i64 [ %1, %3 ], [ %41, %.lr.ph ]
  %.098.lcssa = phi ptr [ %0, %3 ], [ %42, %.lr.ph ]
  %.097.lcssa = phi i32 [ %7, %3 ], [ %36, %.lr.ph ]
  %.095.lcssa = phi i32 [ %7, %3 ], [ %40, %.lr.ph ]
  %.0.lcssa = phi i32 [ %7, %3 ], [ %39, %.lr.ph ]
  switch i64 %.099.lcssa, label %._crit_edge.unreachabledefault [
    i64 3, label %44
    i64 2, label %48
    i64 1, label %52
    i64 0, label %76
  ]

44:                                               ; preds = %._crit_edge
  %45 = getelementptr inbounds nuw i8, ptr %.098.lcssa, i64 8
  %46 = load i32, ptr %45, align 4, !tbaa !3
  %47 = add i32 %46, %.0.lcssa
  br label %48

48:                                               ; preds = %44, %._crit_edge
  %.2 = phi i32 [ %.0.lcssa, %._crit_edge ], [ %47, %44 ]
  %49 = getelementptr inbounds nuw i8, ptr %.098.lcssa, i64 4
  %50 = load i32, ptr %49, align 4, !tbaa !3
  %51 = add i32 %50, %.095.lcssa
  br label %52

52:                                               ; preds = %48, %._crit_edge
  %.196 = phi i32 [ %.095.lcssa, %._crit_edge ], [ %51, %48 ]
  %.3 = phi i32 [ %.0.lcssa, %._crit_edge ], [ %.2, %48 ]
  %53 = load i32, ptr %.098.lcssa, align 4, !tbaa !3
  %54 = add i32 %53, %.097.lcssa
  %55 = xor i32 %.3, %.196
  %56 = tail call i32 @llvm.fshl.i32(i32 %.196, i32 %.196, i32 14)
  %57 = sub i32 %55, %56
  %58 = xor i32 %54, %57
  %59 = tail call i32 @llvm.fshl.i32(i32 %57, i32 %57, i32 11)
  %60 = sub i32 %58, %59
  %61 = xor i32 %60, %.196
  %62 = tail call i32 @llvm.fshl.i32(i32 %60, i32 %60, i32 25)
  %63 = sub i32 %61, %62
  %64 = xor i32 %63, %57
  %65 = tail call i32 @llvm.fshl.i32(i32 %63, i32 %63, i32 16)
  %66 = sub i32 %64, %65
  %67 = xor i32 %66, %60
  %68 = tail call i32 @llvm.fshl.i32(i32 %66, i32 %66, i32 4)
  %69 = sub i32 %67, %68
  %70 = xor i32 %69, %63
  %71 = tail call i32 @llvm.fshl.i32(i32 %69, i32 %69, i32 14)
  %72 = sub i32 %70, %71
  %73 = xor i32 %72, %66
  %74 = tail call i32 @llvm.fshl.i32(i32 %72, i32 %72, i32 24)
  %75 = sub i32 %73, %74
  br label %76

._crit_edge.unreachabledefault:                   ; preds = %._crit_edge
  unreachable

76:                                               ; preds = %._crit_edge, %52
  %.1 = phi i32 [ %.0.lcssa, %._crit_edge ], [ %75, %52 ]
  ret i32 %.1
}